target datalayout = "e-m:e-p270:32:32-p271:32:32-p272:64:64-i64:64-i128:128-f80:128-n8:16:32:64-S128"
target triple = "x86_64-unknown-linux-gnu"

%"class.testing::AssertionResult" = type { i8, %"class.testing::internal::scoped_ptr.38" }
%"class.testing::internal::scoped_ptr.38" = type { ptr }

@.str.13 = private unnamed_addr constant [1 x i8] zeroinitializer, align 1
@.str.43 = private unnamed_addr constant [11 x i8] c"Expected: \00", align 1
@.str.44 = private unnamed_addr constant [2 x i8] c"\0A\00", align 1
@.str.45 = private unnamed_addr constant [11 x i8] c"  Actual: \00", align 1
@.str.49 = private unnamed_addr constant [3 x i8] c"\22\0A\00", align 1
@.str.58 = private unnamed_addr constant [11 x i8] c"Value of: \00", align 1
@.str.81 = private unnamed_addr constant [2 x i8] c"\22\00", align 1
@.str.417 = private unnamed_addr constant [5 x i8] c"not \00", align 1
@.str.418 = private unnamed_addr constant [16 x i8] c"a substring of \00", align 1
@.str.419 = private unnamed_addr constant [11 x i8] c"Which is: \00", align 1
@_ZN7testing15AssertionResultC1ERKS0_ = unnamed_addr alias void (ptr, ptr), ptr @_ZN7testing15AssertionResultC2ERKS0_

; Function Attrs: mustprogress nounwind uwtable
define linkonce_odr hidden void @_ZN7testing8internal10scoped_ptrINSt7__cxx1112basic_stringIcSt11char_traitsIcESaIcEEEEC2EPS7_(ptr noundef nonnull align 8 dereferenceable(8) %this, ptr noundef %p) unnamed_addr #5 comdat align 2 {
entry:
  %this.addr = alloca ptr, align 8
  %p.addr = alloca ptr, align 8
  store ptr %this, ptr %this.addr, align 8
  store ptr %p, ptr %p.addr, align 8
  %this1 = load ptr, ptr %this.addr, align 8
  %ptr_ = getelementptr inbounds %"class.testing::internal::scoped_ptr.38", ptr %this1, i32 0, i32 0
  %0 = load ptr, ptr %p.addr, align 8
  store ptr %0, ptr %ptr_, align 8
  ret void
}

; Function Attrs: mustprogress uwtable
define linkonce_odr void @_ZN7testing15AssertionResultC2IbEERKT_PNS_8internal8EnableIfIXntsr8internal21ImplicitlyConvertibleIS2_S0_EE5valueEE4typeE(ptr noundef nonnull align 8 dereferenceable(16) %this, ptr noundef nonnull align 1 dereferenceable(1) %success, ptr noundef %0) unnamed_addr #4 comdat align 2 {
entry:
  %this.addr = alloca ptr, align 8
  %success.addr = alloca ptr, align 8
  %.addr = alloca ptr, align 8
  store ptr %this, ptr %this.addr, align 8
  store ptr %success, ptr %success.addr, align 8
  store ptr %0, ptr %.addr, align 8
  %this1 = load ptr, ptr %this.addr, align 8
  %success_ = getelementptr inbounds %"class.testing::AssertionResult", ptr %this1, i32 0, i32 0
  %1 = load ptr, ptr %success.addr, align 8
  %2 = load i8, ptr %1, align 1
  %tobool = trunc i8 %2 to i1
  %frombool = zext i1 %tobool to i8
  store i8 %frombool, ptr %success_, align 8
  %message_ = getelementptr inbounds %"class.testing::AssertionResult", ptr %this1, i32 0, i32 1
  call void @_ZN7testing8internal10scoped_ptrINSt7__cxx1112basic_stringIcSt11char_traitsIcESaIcEEEEC2EPS7_(ptr noundef nonnull align 8 dereferenceable(8) %message_, ptr noundef null)
  ret void
}

; Function Attrs: mustprogress uwtable
define void @_ZN7testing16AssertionFailureEv(ptr noalias sret(%"class.testing::AssertionResult") align 8 %agg.result) #4 {
entry:
  %result.ptr = alloca ptr, align 8
  %ref.tmp = alloca i8, align 1
  store ptr %agg.result, ptr %result.ptr, align 8
  store i8 0, ptr %ref.tmp, align 1
  call void @_ZN7testing15AssertionResultC2IbEERKT_PNS_8internal8EnableIfIXntsr8internal21ImplicitlyConvertibleIS2_S0_EE5valueEE4typeE(ptr noundef nonnull align 8 dereferenceable(16) %agg.result, ptr noundef nonnull align 1 dereferenceable(1) %ref.tmp, ptr noundef null)
  ret void
}

; Function Attrs: mustprogress uwtable
define void @_ZN7testing16AssertionSuccessEv(ptr noalias sret(%"class.testing::AssertionResult") align 8 %agg.result) #4 {
entry:
  %result.ptr = alloca ptr, align 8
  %ref.tmp = alloca i8, align 1
  store ptr %agg.result, ptr %result.ptr, align 8
  store i8 1, ptr %ref.tmp, align 1
  call void @_ZN7testing15AssertionResultC2IbEERKT_PNS_8internal8EnableIfIXntsr8internal21ImplicitlyConvertibleIS2_S0_EE5valueEE4typeE(ptr noundef nonnull align 8 dereferenceable(16) %agg.result, ptr noundef nonnull align 1 dereferenceable(1) %ref.tmp, ptr noundef null)
  ret void
}

; Function Attrs: mustprogress nounwind uwtable
define internal noundef zeroext i1 @_ZN7testing12_GLOBAL__N_115IsSubstringPredINSt7__cxx1112basic_stringIcSt11char_traitsIcESaIcEEEEEbRKT_SA_(ptr noundef nonnull align 8 dereferenceable(32) %needle, ptr noundef nonnull align 8 dereferenceable(32) %haystack) #5 {
entry:
  %needle.addr = alloca ptr, align 8
  %haystack.addr = alloca ptr, align 8
  store ptr %needle, ptr %needle.addr, align 8
  store ptr %haystack, ptr %haystack.addr, align 8
  %0 = load ptr, ptr %haystack.addr, align 8
  %1 = load ptr, ptr %needle.addr, align 8
  %call = call noundef i64 @_ZNKSt7__cxx1112basic_stringIcSt11char_traitsIcESaIcEE4findERKS4_m(ptr noundef nonnull align 8 dereferenceable(32) %0, ptr noundef nonnull align 8 dereferenceable(32) %1, i64 noundef 0) #3
  %cmp = icmp ne i64 %call, -1
  ret i1 %cmp
}

; Function Attrs: mustprogress uwtable
define internal void @_ZN7testing12_GLOBAL__N_115IsSubstringImplINSt7__cxx1112basic_stringIcSt11char_traitsIcESaIcEEEEENS_15AssertionResultEbPKcSA_RKT_SD_(ptr noalias sret(%"class.testing::AssertionResult") align 8 %agg.result, i1 noundef zeroext %expected_to_be_substring, ptr noundef %needle_expr, ptr noundef %haystack_expr, ptr noundef nonnull align 8 dereferenceable(32) %needle, ptr noundef nonnull align 8 dereferenceable(32) %haystack) #4 personality ptr @__gxx_personality_v0 {
entry:
  %result.ptr = alloca ptr, align 8
  %expected_to_be_substring.addr = alloca i8, align 1
  %needle_expr.addr = alloca ptr, align 8
  %haystack_expr.addr = alloca ptr, align 8
  %needle.addr = alloca ptr, align 8
  %haystack.addr = alloca ptr, align 8
  %is_wide_string = alloca i8, align 1
  %begin_string_quote = alloca ptr, align 8
  %ref.tmp = alloca %"class.testing::AssertionResult", align 8
  %exn.slot = alloca ptr, align 8
  %ehselector.slot = alloca i32, align 4
  %ref.tmp17 = alloca ptr, align 8
  store ptr %agg.result, ptr %result.ptr, align 8
  %frombool = zext i1 %expected_to_be_substring to i8
  store i8 %frombool, ptr %expected_to_be_substring.addr, align 1
  store ptr %needle_expr, ptr %needle_expr.addr, align 8
  store ptr %haystack_expr, ptr %haystack_expr.addr, align 8
  store ptr %needle, ptr %needle.addr, align 8
  store ptr %haystack, ptr %haystack.addr, align 8
  %0 = load ptr, ptr %needle.addr, align 8
  %1 = load ptr, ptr %haystack.addr, align 8
  %call = call noundef zeroext i1 @_ZN7testing12_GLOBAL__N_115IsSubstringPredINSt7__cxx1112basic_stringIcSt11char_traitsIcESaIcEEEEEbRKT_SA_(ptr noundef nonnull align 8 dereferenceable(32) %0, ptr noundef nonnull align 8 dereferenceable(32) %1)
  %conv = zext i1 %call to i32
  %2 = load i8, ptr %expected_to_be_substring.addr, align 1
  %tobool = trunc i8 %2 to i1
  %conv1 = zext i1 %tobool to i32
  %cmp = icmp eq i32 %conv, %conv1
  br i1 %cmp, label %if.then, label %if.end

if.then:                                          ; preds = %entry
  call void @_ZN7testing16AssertionSuccessEv(ptr sret(%"class.testing::AssertionResult") align 8 %agg.result)
  br label %return

if.end:                                           ; preds = %entry
  store i8 0, ptr %is_wide_string, align 1
  store ptr @.str.81, ptr %begin_string_quote, align 8
  call void @_ZN7testing16AssertionFailureEv(ptr sret(%"class.testing::AssertionResult") align 8 %ref.tmp)
  %call2 = invoke noundef nonnull align 8 dereferenceable(16) ptr @_ZN7testing15AssertionResultlsIA11_cEERS0_RKT_(ptr noundef nonnull align 8 dereferenceable(16) %ref.tmp, ptr noundef nonnull align 1 dereferenceable(11) @.str.58)
          to label %invoke.cont unwind label %lpad

invoke.cont:                                      ; preds = %if.end
  %call4 = invoke noundef nonnull align 8 dereferenceable(16) ptr @_ZN7testing15AssertionResultlsIPKcEERS0_RKT_(ptr noundef nonnull align 8 dereferenceable(16) %call2, ptr noundef nonnull align 8 dereferenceable(8) %needle_expr.addr)
          to label %invoke.cont3 unwind label %lpad

invoke.cont3:                                     ; preds = %invoke.cont
  %call6 = invoke noundef nonnull align 8 dereferenceable(16) ptr @_ZN7testing15AssertionResultlsIA2_cEERS0_RKT_(ptr noundef nonnull align 8 dereferenceable(16) %call4, ptr noundef nonnull align 1 dereferenceable(2) @.str.44)
          to label %invoke.cont5 unwind label %lpad

invoke.cont5:                                     ; preds = %invoke.cont3
  %call8 = invoke noundef nonnull align 8 dereferenceable(16) ptr @_ZN7testing15AssertionResultlsIA11_cEERS0_RKT_(ptr noundef nonnull align 8 dereferenceable(16) %call6, ptr noundef nonnull align 1 dereferenceable(11) @.str.45)
          to label %invoke.cont7 unwind label %lpad

invoke.cont7:                                     ; preds = %invoke.cont5
  %call10 = invoke noundef nonnull align 8 dereferenceable(16) ptr @_ZN7testing15AssertionResultlsIPKcEERS0_RKT_(ptr noundef nonnull align 8 dereferenceable(16) %call8, ptr noundef nonnull align 8 dereferenceable(8) %begin_string_quote)
          to label %invoke.cont9 unwind label %lpad

invoke.cont9:                                     ; preds = %invoke.cont7
  %3 = load ptr, ptr %needle.addr, align 8
  %call12 = invoke noundef nonnull align 8 dereferenceable(16) ptr @_ZN7testing15AssertionResultlsINSt7__cxx1112basic_stringIcSt11char_traitsIcESaIcEEEEERS0_RKT_(ptr noundef nonnull align 8 dereferenceable(16) %call10, ptr noundef nonnull align 8 dereferenceable(32) %3)
          to label %invoke.cont11 unwind label %lpad

invoke.cont11:                                    ; preds = %invoke.cont9
  %call14 = invoke noundef nonnull align 8 dereferenceable(16) ptr @_ZN7testing15AssertionResultlsIA3_cEERS0_RKT_(ptr noundef nonnull align 8 dereferenceable(16) %call12, ptr noundef nonnull align 1 dereferenceable(3) @.str.49)
          to label %invoke.cont13 unwind label %lpad

invoke.cont13:                                    ; preds = %invoke.cont11
  %call16 = invoke noundef nonnull align 8 dereferenceable(16) ptr @_ZN7testing15AssertionResultlsIA11_cEERS0_RKT_(ptr noundef nonnull align 8 dereferenceable(16) %call14, ptr noundef nonnull align 1 dereferenceable(11) @.str.43)
          to label %invoke.cont15 unwind label %lpad

invoke.cont15:                                    ; preds = %invoke.cont13
  %4 = load i8, ptr %expected_to_be_substring.addr, align 1
  %tobool18 = trunc i8 %4 to i1
  %cond = select i1 %tobool18, ptr @.str.13, ptr @.str.417
  store ptr %cond, ptr %ref.tmp17, align 8
  %call20 = invoke noundef nonnull align 8 dereferenceable(16) ptr @_ZN7testing15AssertionResultlsIPKcEERS0_RKT_(ptr noundef nonnull align 8 dereferenceable(16) %call16, ptr noundef nonnull align 8 dereferenceable(8) %ref.tmp17)
          to label %invoke.cont19 unwind label %lpad

invoke.cont19:                                    ; preds = %invoke.cont15
  %call22 = invoke noundef nonnull align 8 dereferenceable(16) ptr @_ZN7testing15AssertionResultlsIA16_cEERS0_RKT_(ptr noundef nonnull align 8 dereferenceable(16) %call20, ptr noundef nonnull align 1 dereferenceable(16) @.str.418)
          to label %invoke.cont21 unwind label %lpad

invoke.cont21:                                    ; preds = %invoke.cont19
  %call24 = invoke noundef nonnull align 8 dereferenceable(16) ptr @_ZN7testing15AssertionResultlsIPKcEERS0_RKT_(ptr noundef nonnull align 8 dereferenceable(16) %call22, ptr noundef nonnull align 8 dereferenceable(8) %haystack_expr.addr)
          to label %invoke.cont23 unwind label %lpad

invoke.cont23:                                    ; preds = %invoke.cont21
  %call26 = invoke noundef nonnull align 8 dereferenceable(16) ptr @_ZN7testing15AssertionResultlsIA2_cEERS0_RKT_(ptr noundef nonnull align 8 dereferenceable(16) %call24, ptr noundef nonnull align 1 dereferenceable(2) @.str.44)
          to label %invoke.cont25 unwind label %lpad

invoke.cont25:                                    ; preds = %invoke.cont23
  %call28 = invoke noundef nonnull align 8 dereferenceable(16) ptr @_ZN7testing15AssertionResultlsIA11_cEERS0_RKT_(ptr noundef nonnull align 8 dereferenceable(16) %call26, ptr noundef nonnull align 1 dereferenceable(11) @.str.419)
          to label %invoke.cont27 unwind label %lpad

invoke.cont27:                                    ; preds = %invoke.cont25
  %call30 = invoke noundef nonnull align 8 dereferenceable(16) ptr @_ZN7testing15AssertionResultlsIPKcEERS0_RKT_(ptr noundef nonnull align 8 dereferenceable(16) %call28, ptr noundef nonnull align 8 dereferenceable(8) %begin_string_quote)
          to label %invoke.cont29 unwind label %lpad

invoke.cont29:                                    ; preds = %invoke.cont27
  %5 = load ptr, ptr %haystack.addr, align 8
  %call32 = invoke noundef nonnull align 8 dereferenceable(16) ptr @_ZN7testing15AssertionResultlsINSt7__cxx1112basic_stringIcSt11char_traitsIcESaIcEEEEERS0_RKT_(ptr noundef nonnull align 8 dereferenceable(16) %call30, ptr noundef nonnull align 8 dereferenceable(32) %5)
          to label %invoke.cont31 unwind label %lpad

invoke.cont31:                                    ; preds = %invoke.cont29
  %call34 = invoke noundef nonnull align 8 dereferenceable(16) ptr @_ZN7testing15AssertionResultlsIA2_cEERS0_RKT_(ptr noundef nonnull align 8 dereferenceable(16) %call32, ptr noundef nonnull align 1 dereferenceable(2) @.str.81)
          to label %invoke.cont33 unwind label %lpad

invoke.cont33:                                    ; preds = %invoke.cont31
  invoke void @_ZN7testing15AssertionResultC1ERKS0_(ptr noundef nonnull align 8 dereferenceable(16) %agg.result, ptr noundef nonnull align 8 dereferenceable(16) %call34)
          to label %invoke.cont35 unwind label %lpad

invoke.cont35:                                    ; preds = %invoke.cont33
  call void @_ZN7testing15AssertionResultD2Ev(ptr noundef nonnull align 8 dereferenceable(16) %ref.tmp) #3
  br label %return

lpad:                                             ; preds = %invoke.cont33, %invoke.cont31, %invoke.cont29, %invoke.cont27, %invoke.cont25, %invoke.cont23, %invoke.cont21, %invoke.cont19, %invoke.cont15, %invoke.cont13, %invoke.cont11, %invoke.cont9, %invoke.cont7, %invoke.cont5, %invoke.cont3, %invoke.cont, %if.end
  %6 = landingpad { ptr, i32 }
          cleanup
  %7 = extractvalue { ptr, i32 } %6, 0
  store ptr %7, ptr %exn.slot, align 8
  %8 = extractvalue { ptr, i32 } %6, 1
  store i32 %8, ptr %ehselector.slot, align 4
  call void @_ZN7testing15AssertionResultD2Ev(ptr noundef nonnull align 8 dereferenceable(16) %ref.tmp) #3
  br label %eh.resume

return:                                           ; preds = %invoke.cont35, %if.then
  ret void

eh.resume:                                        ; preds = %lpad
  %exn = load ptr, ptr %exn.slot, align 8
  %sel = load i32, ptr %ehselector.slot, align 4
  %lpad.val = insertvalue { ptr, i32 } poison, ptr %exn, 0
  %lpad.val36 = insertvalue { ptr, i32 } %lpad.val, i32 %sel, 1
  resume { ptr, i32 } %lpad.val36
}