; Function Attrs: mustprogress uwtable
define internal fastcc void @_ZN7testing12_GLOBAL__N_115IsSubstringImplINSt7__cxx1112basic_stringIcSt11char_traitsIcESaIcEEEEENS_15AssertionResultEbPKcSA_RKT_SD_(ptr noalias align 8 %agg.result, i1 noundef zeroext %expected_to_be_substring, ptr noundef %needle_expr, ptr noundef %haystack_expr, ptr noundef nonnull align 8 dereferenceable(32) %needle, ptr noundef nonnull align 8 dereferenceable(32) %haystack) unnamed_addr #3 personality ptr @__gxx_personality_v0 {
entry:
  %needle_expr.addr = alloca ptr, align 8
  %haystack_expr.addr = alloca ptr, align 8
  %begin_string_quote = alloca ptr, align 8
  %ref.tmp = alloca %"class.testing::AssertionResult", align 8
  %ref.tmp17 = alloca ptr, align 8
  store ptr %needle_expr, ptr %needle_expr.addr, align 8
  store ptr %haystack_expr, ptr %haystack_expr.addr, align 8
  %call.i = tail call noundef i64 @_ZNKSt7__cxx1112basic_stringIcSt11char_traitsIcESaIcEE4findERKS4_m(ptr noundef nonnull align 8 dereferenceable(32) %haystack, ptr noundef nonnull align 8 dereferenceable(32) %needle, i64 noundef 0) #47
  %cmp.i = icmp ne i64 %call.i, -1
  %0 = xor i1 %cmp.i, %expected_to_be_substring
  br i1 %0, label %if.end, label %if.then

if.then:                                          ; preds = %entry
  store i8 1, ptr %agg.result, align 8, !alias.scope !172
  %message_.i.i = getelementptr inbounds i8, ptr %agg.result, i64 8
  store ptr null, ptr %message_.i.i, align 8, !alias.scope !172
  br label %return

if.end:                                           ; preds = %entry
  store ptr @.str.81, ptr %begin_string_quote, align 8
  store i8 0, ptr %ref.tmp, align 8, !alias.scope !175
  %message_.i.i4 = getelementptr inbounds i8, ptr %ref.tmp, i64 8
  store ptr null, ptr %message_.i.i4, align 8, !alias.scope !175
  %call2 = invoke noundef nonnull align 8 dereferenceable(16) ptr @_ZN7testing15AssertionResultlsIA11_cEERS0_RKT_(ptr noundef nonnull align 8 dereferenceable(16) %ref.tmp, ptr noundef nonnull align 1 dereferenceable(11) @.str.58)
          to label %invoke.cont unwind label %lpad

invoke.cont:                                      ; preds = %if.end
  %call4 = invoke noundef nonnull align 8 dereferenceable(16) ptr @_ZN7testing15AssertionResultlsIPKcEERS0_RKT_(ptr noundef nonnull align 8 dereferenceable(16) %call2, ptr noundef nonnull align 8 dereferenceable(8) %needle_expr.addr)
          to label %invoke.cont3 unwind label %lpad

invoke.cont3:                                     ; preds = %invoke.cont
  %call6 = invoke noundef nonnull align 8 dereferenceable(16) ptr @_ZN7testing15AssertionResultlsIA2_cEERS0_RKT_(ptr noundef nonnull align 8 dereferenceable(16) %call4, ptr noundef nonnull align 1 dereferenceable(2) @.str.44)
          to label %invoke.cont5 unwind label %lpad

invoke.cont5:                                     ; preds = %invoke.cont3
  %call8 = invoke noundef nonnull align 8 dereferenceable(16) ptr @_ZN7testing15AssertionResultlsIA11_cEERS0_RKT_(ptr noundef nonnull align 8 dereferenceable(16) %call6, ptr noundef nonnull align 1 dereferenceable(11) @.str.45)
          to label %invoke.cont7 unwind label %lpad

invoke.cont7:                                     ; preds = %invoke.cont5
  %call10 = invoke noundef nonnull align 8 dereferenceable(16) ptr @_ZN7testing15AssertionResultlsIPKcEERS0_RKT_(ptr noundef nonnull align 8 dereferenceable(16) %call8, ptr noundef nonnull align 8 dereferenceable(8) %begin_string_quote)
          to label %invoke.cont9 unwind label %lpad

invoke.cont9:                                     ; preds = %invoke.cont7
  %call12 = invoke noundef nonnull align 8 dereferenceable(16) ptr @_ZN7testing15AssertionResultlsINSt7__cxx1112basic_stringIcSt11char_traitsIcESaIcEEEEERS0_RKT_(ptr noundef nonnull align 8 dereferenceable(16) %call10, ptr noundef nonnull align 8 dereferenceable(32) %needle)
          to label %invoke.cont11 unwind label %lpad

invoke.cont11:                                    ; preds = %invoke.cont9
  %call14 = invoke noundef nonnull align 8 dereferenceable(16) ptr @_ZN7testing15AssertionResultlsIA3_cEERS0_RKT_(ptr noundef nonnull align 8 dereferenceable(16) %call12, ptr noundef nonnull align 1 dereferenceable(3) @.str.49)
          to label %invoke.cont13 unwind label %lpad

invoke.cont13:                                    ; preds = %invoke.cont11
  %call16 = invoke noundef nonnull align 8 dereferenceable(16) ptr @_ZN7testing15AssertionResultlsIA11_cEERS0_RKT_(ptr noundef nonnull align 8 dereferenceable(16) %call14, ptr noundef nonnull align 1 dereferenceable(11) @.str.43)
          to label %invoke.cont15 unwind label %lpad

invoke.cont15:                                    ; preds = %invoke.cont13
  %cond = select i1 %expected_to_be_substring, ptr @.str.13, ptr @.str.417
  store ptr %cond, ptr %ref.tmp17, align 8
  %call20 = invoke noundef nonnull align 8 dereferenceable(16) ptr @_ZN7testing15AssertionResultlsIPKcEERS0_RKT_(ptr noundef nonnull align 8 dereferenceable(16) %call16, ptr noundef nonnull align 8 dereferenceable(8) %ref.tmp17)
          to label %invoke.cont19 unwind label %lpad

invoke.cont19:                                    ; preds = %invoke.cont15
  %call22 = invoke noundef nonnull align 8 dereferenceable(16) ptr @_ZN7testing15AssertionResultlsIA16_cEERS0_RKT_(ptr noundef nonnull align 8 dereferenceable(16) %call20, ptr noundef nonnull align 1 dereferenceable(16) @.str.418)
          to label %invoke.cont21 unwind label %lpad

invoke.cont21:                                    ; preds = %invoke.cont19
  %call24 = invoke noundef nonnull align 8 dereferenceable(16) ptr @_ZN7testing15AssertionResultlsIPKcEERS0_RKT_(ptr noundef nonnull align 8 dereferenceable(16) %call22, ptr noundef nonnull align 8 dereferenceable(8) %haystack_expr.addr)
          to label %invoke.cont23 unwind label %lpad

invoke.cont23:                                    ; preds = %invoke.cont21
  %call26 = invoke noundef nonnull align 8 dereferenceable(16) ptr @_ZN7testing15AssertionResultlsIA2_cEERS0_RKT_(ptr noundef nonnull align 8 dereferenceable(16) %call24, ptr noundef nonnull align 1 dereferenceable(2) @.str.44)
          to label %invoke.cont25 unwind label %lpad

invoke.cont25:                                    ; preds = %invoke.cont23
  %call28 = invoke noundef nonnull align 8 dereferenceable(16) ptr @_ZN7testing15AssertionResultlsIA11_cEERS0_RKT_(ptr noundef nonnull align 8 dereferenceable(16) %call26, ptr noundef nonnull align 1 dereferenceable(11) @.str.419)
          to label %invoke.cont27 unwind label %lpad

invoke.cont27:                                    ; preds = %invoke.cont25
  %call30 = invoke noundef nonnull align 8 dereferenceable(16) ptr @_ZN7testing15AssertionResultlsIPKcEERS0_RKT_(ptr noundef nonnull align 8 dereferenceable(16) %call28, ptr noundef nonnull align 8 dereferenceable(8) %begin_string_quote)
          to label %invoke.cont29 unwind label %lpad

invoke.cont29:                                    ; preds = %invoke.cont27
  %call32 = invoke noundef nonnull align 8 dereferenceable(16) ptr @_ZN7testing15AssertionResultlsINSt7__cxx1112basic_stringIcSt11char_traitsIcESaIcEEEEERS0_RKT_(ptr noundef nonnull align 8 dereferenceable(16) %call30, ptr noundef nonnull align 8 dereferenceable(32) %haystack)
          to label %invoke.cont31 unwind label %lpad

invoke.cont31:                                    ; preds = %invoke.cont29
  %call34 = invoke noundef nonnull align 8 dereferenceable(16) ptr @_ZN7testing15AssertionResultlsIA2_cEERS0_RKT_(ptr noundef nonnull align 8 dereferenceable(16) %call32, ptr noundef nonnull align 1 dereferenceable(2) @.str.81)
          to label %invoke.cont33 unwind label %lpad

invoke.cont33:                                    ; preds = %invoke.cont31
  invoke void @_ZN7testing15AssertionResultC1ERKS0_(ptr noundef nonnull align 8 dereferenceable(16) %agg.result, ptr noundef nonnull align 8 dereferenceable(16) %call34)
          to label %invoke.cont35 unwind label %lpad

invoke.cont35:                                    ; preds = %invoke.cont33
  %1 = load ptr, ptr %message_.i.i4, align 8
  %cmp.not.i.i.i = icmp eq ptr %1, null
  br i1 %cmp.not.i.i.i, label %return, label %if.end.i.i.i

if.end.i.i.i:                                     ; preds = %invoke.cont35
  call void @_ZNSt7__cxx1112basic_stringIcSt11char_traitsIcESaIcEED1Ev(ptr noundef nonnull align 8 dereferenceable(32) %1) #47
  call void @_ZdlPv(ptr noundef nonnull %1) #51
  br label %return

lpad:                                             ; preds = %invoke.cont33, %invoke.cont31, %invoke.cont29, %invoke.cont27, %invoke.cont25, %invoke.cont23, %invoke.cont21, %invoke.cont19, %invoke.cont15, %invoke.cont13, %invoke.cont11, %invoke.cont9, %invoke.cont7, %invoke.cont5, %invoke.cont3, %invoke.cont, %if.end
  %2 = landingpad { ptr, i32 }
          cleanup
  call void @_ZN7testing15AssertionResultD2Ev(ptr noundef nonnull align 8 dereferenceable(16) %ref.tmp) #47
  resume { ptr, i32 } %2

return:                                           ; preds = %if.end.i.i.i, %invoke.cont35, %if.then
  ret void
}